; Function Attrs: nounwind uwtable
define zeroext range(i8 0, 2) i8 @l_Int_Linear_not__le__norm__expr__cert(ptr noundef %0, ptr noundef %1, ptr noundef %2) local_unnamed_addr #1 {
  tail call void @lean_inc_heartbeat() #5
  %4 = tail call noalias ptr @mi_malloc_small(i64 noundef 24) #5
  %5 = icmp eq ptr %4, null
  br i1 %5, label %6, label %lean_alloc_ctor.exit

6:                                                ; preds = %3
  tail call void @lean_internal_panic_out_of_memory() #6
  unreachable

lean_alloc_ctor.exit:                             ; preds = %3
  %7 = getelementptr inbounds nuw i8, ptr %4, i64 4
  store i32 1, ptr %4, align 4, !tbaa !6
  store i32 50462744, ptr %7, align 4
  %8 = getelementptr inbounds nuw i8, ptr %4, i64 8
  store ptr %0, ptr %8, align 8, !tbaa !11
  %9 = getelementptr inbounds nuw i8, ptr %4, i64 16
  store ptr %1, ptr %9, align 8, !tbaa !11
  %10 = load ptr, ptr @l_Int_Linear_Poly_denote_x27_go___closed__1, align 8, !tbaa !11
  %11 = load ptr, ptr @l_Int_Linear_Expr_toPoly_x27___closed__1, align 8, !tbaa !11
  %12 = tail call ptr @l_Int_Linear_Expr_toPoly_x27_go(ptr noundef %10, ptr noundef nonnull %4, ptr noundef %11)
  %13 = tail call ptr @l_Int_Linear_Poly_norm(ptr noundef %12)
  %14 = ptrtoint ptr %4 to i64
  %15 = and i64 %14, 1
  %.not = icmp eq i64 %15, 0
  br i1 %.not, label %16, label %lean_dec.exit13

16:                                               ; preds = %lean_alloc_ctor.exit
  %17 = load i32, ptr %4, align 4, !tbaa !6
  %18 = icmp sgt i32 %17, 1
  br i1 %18, label %19, label %21, !prof !5

19:                                               ; preds = %16
  %20 = add nsw i32 %17, -1
  store i32 %20, ptr %4, align 4, !tbaa !6
  br label %lean_dec.exit13

21:                                               ; preds = %16
  %.not.i = icmp eq i32 %17, 0
  br i1 %.not.i, label %lean_dec.exit13, label %22

22:                                               ; preds = %21
  tail call void @lean_dec_ref_cold(ptr noundef nonnull %4) #5
  br label %lean_dec.exit13

lean_dec.exit13:                                  ; preds = %22, %21, %19, %lean_alloc_ctor.exit
  %23 = load ptr, ptr @l_Int_Linear_norm__eq__var__cert___closed__1, align 8, !tbaa !11
  %24 = load ptr, ptr @l_Int_Linear_instInhabitedExpr___closed__1, align 8, !tbaa !11
  %25 = ptrtoint ptr %23 to i64
  %26 = ptrtoint ptr %24 to i64
  %27 = and i64 %25, 1
  %28 = and i64 %27, %26
  %or.cond.not.i.i.i = icmp eq i64 %28, 0
  br i1 %or.cond.not.i.i.i, label %lean_int_dec_eq.exit.i, label %29, !prof !13

29:                                               ; preds = %lean_dec.exit13
  %30 = icmp eq ptr %23, %24
  br i1 %30, label %34, label %32

lean_int_dec_eq.exit.i:                           ; preds = %lean_dec.exit13
  %31 = tail call zeroext i1 @lean_int_big_eq(ptr noundef %23, ptr noundef %24) #5
  br i1 %31, label %34, label %32

32:                                               ; preds = %lean_int_dec_eq.exit.i, %29
  %33 = tail call ptr @l_Int_Linear_Poly_mul_x27(ptr noundef %13, ptr noundef %23)
  br label %l_Int_Linear_Poly_mul.exit

34:                                               ; preds = %lean_int_dec_eq.exit.i, %29
  %35 = ptrtoint ptr %13 to i64
  %36 = and i64 %35, 1
  %.not.i16 = icmp eq i64 %36, 0
  br i1 %.not.i16, label %37, label %lean_dec.exit.i

37:                                               ; preds = %34
  %38 = load i32, ptr %13, align 4, !tbaa !6
  %39 = icmp sgt i32 %38, 1
  br i1 %39, label %40, label %42, !prof !5

40:                                               ; preds = %37
  %41 = add nsw i32 %38, -1
  store i32 %41, ptr %13, align 4, !tbaa !6
  br label %lean_dec.exit.i

42:                                               ; preds = %37
  %.not.i.i = icmp eq i32 %38, 0
  br i1 %.not.i.i, label %lean_dec.exit.i, label %43

43:                                               ; preds = %42
  tail call void @lean_dec_ref_cold(ptr noundef nonnull %13) #5
  br label %lean_dec.exit.i

lean_dec.exit.i:                                  ; preds = %43, %42, %40, %34
  %44 = load ptr, ptr @l_Int_Linear_Expr_toPoly_x27___closed__1, align 8, !tbaa !11
  br label %l_Int_Linear_Poly_mul.exit

l_Int_Linear_Poly_mul.exit:                       ; preds = %32, %lean_dec.exit.i
  %.0.i = phi ptr [ %33, %32 ], [ %44, %lean_dec.exit.i ]
  %45 = load ptr, ptr @l_Int_Linear_Poly_denote_x27_go___closed__1, align 8, !tbaa !11
  %46 = tail call ptr @l_Int_Linear_Poly_addConst(ptr noundef %.0.i, ptr noundef %45)
  %47 = tail call zeroext i8 @l_Int_Linear_beqPoly____x40_Init_Data_Int_Linear___hyg_596_(ptr noundef %2, ptr noundef %46)
  %48 = ptrtoint ptr %46 to i64
  %49 = and i64 %48, 1
  %.not17 = icmp eq i64 %49, 0
  br i1 %.not17, label %50, label %lean_dec.exit

50:                                               ; preds = %l_Int_Linear_Poly_mul.exit
  %51 = load i32, ptr %46, align 4, !tbaa !6
  %52 = icmp sgt i32 %51, 1
  br i1 %52, label %53, label %55, !prof !5

53:                                               ; preds = %50
  %54 = add nsw i32 %51, -1
  store i32 %54, ptr %46, align 4, !tbaa !6
  br label %lean_dec.exit

55:                                               ; preds = %50
  %.not.i14 = icmp eq i32 %51, 0
  br i1 %.not.i14, label %lean_dec.exit, label %56

56:                                               ; preds = %55
  tail call void @lean_dec_ref_cold(ptr noundef nonnull %46) #5
  br label %lean_dec.exit

lean_dec.exit:                                    ; preds = %56, %55, %53, %l_Int_Linear_Poly_mul.exit
  ret i8 %47
}